target datalayout = "e-m:e-p270:32:32-p271:32:32-p272:64:64-i64:64-i128:128-f80:128-n8:16:32:64-S128"
target triple = "x86_64-unknown-linux-gnu"

%"class.google::protobuf::internal::LogMessage" = type { i32, ptr, i32, %"class.std::__cxx11::basic_string" }
%"class.std::__cxx11::basic_string" = type { %"struct.std::__cxx11::basic_string<char>::_Alloc_hider", i64, %union.anon }
%"struct.std::__cxx11::basic_string<char>::_Alloc_hider" = type { ptr }
%union.anon = type { i64, [8 x i8] }
%"class.google::protobuf::internal::LogFinisher" = type { i8 }

@.str.4 = private unnamed_addr constant [159 x i8] c"generated/home/dtcxzyw/WorkSpace/Projects/compilers/llvm-opt-benchmark/bench/yalantinglibs/bench_build/src/struct_pb/conformance/conformance/conformance.pb.cc\00", align 1
@.str.5 = private unnamed_addr constant [34 x i8] c"CHECK failed: (&from) != (this): \00", align 1
@_ZTIN6google8protobuf7MessageE = external constant ptr
@_ZTIN11conformance18ConformanceRequestE = dso_local constant { ptr, ptr, ptr } { ptr getelementptr inbounds (ptr, ptr @_ZTVN10__cxxabiv120__si_class_type_infoE, i64 2), ptr @_ZTSN11conformance18ConformanceRequestE, ptr @_ZTIN6google8protobuf7MessageE }, align 8

; Function Attrs: mustprogress nounwind uwtable
define linkonce_odr dso_local noundef ptr @_ZN6google8protobuf22DynamicCastToGeneratedIN11conformance18ConformanceRequestEEEPKT_PKNS0_7MessageE(ptr noundef %from) #5 comdat {
entry:
  %from.addr = alloca ptr, align 8
  %get_default_instance = alloca ptr, align 8
  %unused = alloca ptr, align 8
  store ptr %from, ptr %from.addr, align 8
  store ptr @_ZN11conformance18ConformanceRequest16default_instanceEv, ptr %get_default_instance, align 8
  store ptr null, ptr %unused, align 8
  %0 = load ptr, ptr %from.addr, align 8
  %1 = icmp eq ptr %0, null
  br i1 %1, label %dynamic_cast.null, label %dynamic_cast.notnull

dynamic_cast.notnull:                             ; preds = %entry
  %2 = call ptr @__dynamic_cast(ptr %0, ptr @_ZTIN6google8protobuf7MessageE, ptr @_ZTIN11conformance18ConformanceRequestE, i64 0) #3
  br label %dynamic_cast.end

dynamic_cast.null:                                ; preds = %entry
  br label %dynamic_cast.end

dynamic_cast.end:                                 ; preds = %dynamic_cast.null, %dynamic_cast.notnull
  %3 = phi ptr [ %2, %dynamic_cast.notnull ], [ null, %dynamic_cast.null ]
  ret ptr %3
}

; Function Attrs: mustprogress uwtable
define dso_local void @_ZN11conformance18ConformanceRequest9MergeFromERKN6google8protobuf7MessageE(ptr noundef nonnull align 8 dereferenceable(64) %this, ptr noundef nonnull align 8 dereferenceable(16) %from) unnamed_addr #4 align 2 personality ptr @__gxx_personality_v0 {
entry:
  %this.addr = alloca ptr, align 8
  %from.addr = alloca ptr, align 8
  %ref.tmp = alloca %"class.google::protobuf::internal::LogMessage", align 8
  %cleanup.cond = alloca i1, align 1
  %exn.slot = alloca ptr, align 8
  %ehselector.slot = alloca i32, align 4
  %ref.tmp2 = alloca %"class.google::protobuf::internal::LogFinisher", align 1
  %source = alloca ptr, align 8
  store ptr %this, ptr %this.addr, align 8
  store ptr %from, ptr %from.addr, align 8
  %this1 = load ptr, ptr %this.addr, align 8
  br label %while.cond

while.cond:                                       ; preds = %cleanup.done, %entry
  br i1 false, label %while.body, label %while.end

while.body:                                       ; preds = %while.cond
  %0 = load ptr, ptr %from.addr, align 8
  %cmp = icmp ne ptr %0, %this1
  store i1 false, ptr %cleanup.cond, align 1
  br i1 %cmp, label %cond.true, label %cond.false

cond.true:                                        ; preds = %while.body
  br label %cond.end

cond.false:                                       ; preds = %while.body
  call void @_ZN6google8protobuf8internal10LogMessageC1ENS0_8LogLevelEPKci(ptr noundef nonnull align 8 dereferenceable(56) %ref.tmp, i32 noundef 3, ptr noundef @.str.4, i32 noundef 888)
  store i1 true, ptr %cleanup.cond, align 1
  %call = invoke noundef nonnull align 8 dereferenceable(56) ptr @_ZN6google8protobuf8internal10LogMessagelsEPKc(ptr noundef nonnull align 8 dereferenceable(56) %ref.tmp, ptr noundef @.str.5)
          to label %invoke.cont unwind label %lpad

invoke.cont:                                      ; preds = %cond.false
  invoke void @_ZN6google8protobuf8internal11LogFinisheraSERNS1_10LogMessageE(ptr noundef nonnull align 1 dereferenceable(1) %ref.tmp2, ptr noundef nonnull align 8 dereferenceable(56) %call)
          to label %invoke.cont3 unwind label %lpad

invoke.cont3:                                     ; preds = %invoke.cont
  br label %cond.end

cond.end:                                         ; preds = %invoke.cont3, %cond.true
  %cleanup.is_active = load i1, ptr %cleanup.cond, align 1
  br i1 %cleanup.is_active, label %cleanup.action, label %cleanup.done

cleanup.action:                                   ; preds = %cond.end
  call void @_ZN6google8protobuf8internal10LogMessageD1Ev(ptr noundef nonnull align 8 dereferenceable(56) %ref.tmp) #3
  br label %cleanup.done

cleanup.done:                                     ; preds = %cleanup.action, %cond.end
  br label %while.cond, !llvm.loop !16

lpad:                                             ; preds = %invoke.cont, %cond.false
  %1 = landingpad { ptr, i32 }
          cleanup
  %2 = extractvalue { ptr, i32 } %1, 0
  store ptr %2, ptr %exn.slot, align 8
  %3 = extractvalue { ptr, i32 } %1, 1
  store i32 %3, ptr %ehselector.slot, align 4
  %cleanup.is_active4 = load i1, ptr %cleanup.cond, align 1
  br i1 %cleanup.is_active4, label %cleanup.action5, label %cleanup.done6

cleanup.action5:                                  ; preds = %lpad
  call void @_ZN6google8protobuf8internal10LogMessageD1Ev(ptr noundef nonnull align 8 dereferenceable(56) %ref.tmp) #3
  br label %cleanup.done6

cleanup.done6:                                    ; preds = %cleanup.action5, %lpad
  br label %eh.resume

while.end:                                        ; preds = %while.cond
  %4 = load ptr, ptr %from.addr, align 8
  %call7 = call noundef ptr @_ZN6google8protobuf22DynamicCastToGeneratedIN11conformance18ConformanceRequestEEEPKT_PKNS0_7MessageE(ptr noundef %4)
  store ptr %call7, ptr %source, align 8
  %5 = load ptr, ptr %source, align 8
  %cmp8 = icmp eq ptr %5, null
  br i1 %cmp8, label %if.then, label %if.else

if.then:                                          ; preds = %while.end
  %6 = load ptr, ptr %from.addr, align 8
  call void @_ZN6google8protobuf8internal13ReflectionOps5MergeERKNS0_7MessageEPS3_(ptr noundef nonnull align 8 dereferenceable(16) %6, ptr noundef %this1)
  br label %if.end

if.else:                                          ; preds = %while.end
  %7 = load ptr, ptr %source, align 8
  call void @_ZN11conformance18ConformanceRequest9MergeFromERKS0_(ptr noundef nonnull align 8 dereferenceable(64) %this1, ptr noundef nonnull align 8 dereferenceable(64) %7)
  br label %if.end

if.end:                                           ; preds = %if.else, %if.then
  ret void

eh.resume:                                        ; preds = %cleanup.done6
  %exn = load ptr, ptr %exn.slot, align 8
  %sel = load i32, ptr %ehselector.slot, align 4
  %lpad.val = insertvalue { ptr, i32 } poison, ptr %exn, 0
  %lpad.val9 = insertvalue { ptr, i32 } %lpad.val, i32 %sel, 1
  resume { ptr, i32 } %lpad.val9
}